; Function Attrs: mustprogress null_pointer_is_valid sspstrong uwtable
define void @_ZNK21EnabledProtocolsModel10headerDataEiN2Qt11OrientationEi(ptr dead_on_unwind noalias writable sret(%class.QVariant) align 8 %0, ptr readnone align 8 captures(none) %1, i32 noundef %2, i32 noundef %3, i32 noundef %4) unnamed_addr #4 align 2 personality ptr @__gxx_personality_v0 {
  %6 = alloca %class.QString, align 8
  %7 = alloca %class.QString, align 8
  %8 = icmp eq i32 %3, 1
  %9 = icmp eq i32 %4, 0
  %or.cond = and i1 %8, %9
  br i1 %or.cond, label %10, label %35

10:                                               ; preds = %5
  switch i32 %2, label %35 [
    i32 0, label %11
    i32 1, label %23
  ]

11:                                               ; preds = %10
  call void @llvm.lifetime.start.p0(i64 24, ptr nonnull %6) #28
  call void @_ZNK11QMetaObject2trEPKcS1_i(ptr dead_on_unwind nonnull writable sret(%class.QString) align 8 %6, ptr noundef nonnull align 8 dereferenceable_or_null(56) @_ZN21EnabledProtocolsModel16staticMetaObjectE, ptr noundef nonnull @.str, ptr noundef null, i32 noundef -1)
  invoke void @_ZN8QVariantC1ERK7QString(ptr noundef align 8 dereferenceable_or_null(32) %0, ptr noundef nonnull align 8 dereferenceable(24) %6)
          to label %12 unwind label %17

12:                                               ; preds = %11
  %13 = load ptr, ptr %6, align 8
  %.not.i.i.i = icmp eq ptr %13, null
  br i1 %.not.i.i.i, label %_ZN7QStringD2Ev.exit, label %_ZN17QArrayDataPointerIDsE5derefEv.exit.i.i

_ZN17QArrayDataPointerIDsE5derefEv.exit.i.i:      ; preds = %12
  %14 = atomicrmw sub ptr %13, i32 1 seq_cst, align 4
  %.not.i.i = icmp eq i32 %14, 1
  br i1 %.not.i.i, label %15, label %_ZN7QStringD2Ev.exit

15:                                               ; preds = %_ZN17QArrayDataPointerIDsE5derefEv.exit.i.i
  %16 = load ptr, ptr %6, align 8
  call void @_ZN10QArrayData10deallocateEPS_xx(ptr noundef %16, i64 noundef 2, i64 noundef 8) #28
  br label %_ZN7QStringD2Ev.exit

_ZN7QStringD2Ev.exit:                             ; preds = %12, %_ZN17QArrayDataPointerIDsE5derefEv.exit.i.i, %15
  call void @llvm.lifetime.end.p0(i64 24, ptr nonnull %6) #28
  br label %37

17:                                               ; preds = %11
  %18 = landingpad { ptr, i32 }
          cleanup
  %19 = load ptr, ptr %6, align 8
  %.not.i.i.i7 = icmp eq ptr %19, null
  br i1 %.not.i.i.i7, label %_ZN7QStringD2Ev.exit10, label %_ZN17QArrayDataPointerIDsE5derefEv.exit.i.i8

_ZN17QArrayDataPointerIDsE5derefEv.exit.i.i8:     ; preds = %17
  %20 = atomicrmw sub ptr %19, i32 1 seq_cst, align 4
  %.not.i.i9 = icmp eq i32 %20, 1
  br i1 %.not.i.i9, label %21, label %_ZN7QStringD2Ev.exit10

21:                                               ; preds = %_ZN17QArrayDataPointerIDsE5derefEv.exit.i.i8
  %22 = load ptr, ptr %6, align 8
  call void @_ZN10QArrayData10deallocateEPS_xx(ptr noundef %22, i64 noundef 2, i64 noundef 8) #28
  br label %_ZN7QStringD2Ev.exit10

_ZN7QStringD2Ev.exit10:                           ; preds = %17, %_ZN17QArrayDataPointerIDsE5derefEv.exit.i.i8, %21
  call void @llvm.lifetime.end.p0(i64 24, ptr nonnull %6) #28
  br label %38

23:                                               ; preds = %10
  call void @llvm.lifetime.start.p0(i64 24, ptr nonnull %7) #28
  call void @_ZNK11QMetaObject2trEPKcS1_i(ptr dead_on_unwind nonnull writable sret(%class.QString) align 8 %7, ptr noundef nonnull align 8 dereferenceable_or_null(56) @_ZN21EnabledProtocolsModel16staticMetaObjectE, ptr noundef nonnull @.str.1, ptr noundef null, i32 noundef -1)
  invoke void @_ZN8QVariantC1ERK7QString(ptr noundef align 8 dereferenceable_or_null(32) %0, ptr noundef nonnull align 8 dereferenceable(24) %7)
          to label %24 unwind label %29

24:                                               ; preds = %23
  %25 = load ptr, ptr %7, align 8
  %.not.i.i.i11 = icmp eq ptr %25, null
  br i1 %.not.i.i.i11, label %_ZN7QStringD2Ev.exit14, label %_ZN17QArrayDataPointerIDsE5derefEv.exit.i.i12

_ZN17QArrayDataPointerIDsE5derefEv.exit.i.i12:    ; preds = %24
  %26 = atomicrmw sub ptr %25, i32 1 seq_cst, align 4
  %.not.i.i13 = icmp eq i32 %26, 1
  br i1 %.not.i.i13, label %27, label %_ZN7QStringD2Ev.exit14

27:                                               ; preds = %_ZN17QArrayDataPointerIDsE5derefEv.exit.i.i12
  %28 = load ptr, ptr %7, align 8
  call void @_ZN10QArrayData10deallocateEPS_xx(ptr noundef %28, i64 noundef 2, i64 noundef 8) #28
  br label %_ZN7QStringD2Ev.exit14

_ZN7QStringD2Ev.exit14:                           ; preds = %24, %_ZN17QArrayDataPointerIDsE5derefEv.exit.i.i12, %27
  call void @llvm.lifetime.end.p0(i64 24, ptr nonnull %7) #28
  br label %37

29:                                               ; preds = %23
  %30 = landingpad { ptr, i32 }
          cleanup
  %31 = load ptr, ptr %7, align 8
  %.not.i.i.i15 = icmp eq ptr %31, null
  br i1 %.not.i.i.i15, label %_ZN7QStringD2Ev.exit18, label %_ZN17QArrayDataPointerIDsE5derefEv.exit.i.i16

_ZN17QArrayDataPointerIDsE5derefEv.exit.i.i16:    ; preds = %29
  %32 = atomicrmw sub ptr %31, i32 1 seq_cst, align 4
  %.not.i.i17 = icmp eq i32 %32, 1
  br i1 %.not.i.i17, label %33, label %_ZN7QStringD2Ev.exit18

33:                                               ; preds = %_ZN17QArrayDataPointerIDsE5derefEv.exit.i.i16
  %34 = load ptr, ptr %7, align 8
  call void @_ZN10QArrayData10deallocateEPS_xx(ptr noundef %34, i64 noundef 2, i64 noundef 8) #28
  br label %_ZN7QStringD2Ev.exit18

_ZN7QStringD2Ev.exit18:                           ; preds = %29, %_ZN17QArrayDataPointerIDsE5derefEv.exit.i.i16, %33
  call void @llvm.lifetime.end.p0(i64 24, ptr nonnull %7) #28
  br label %38

35:                                               ; preds = %10, %5
  tail call void @llvm.memset.p0.i64(ptr noundef align 8 dereferenceable(24) dereferenceable_or_null(32) %0, i8 0, i64 24, i1 false)
  %36 = getelementptr inbounds nuw i8, ptr %0, i64 24
  store i64 2, ptr %36, align 8
  br label %37

37:                                               ; preds = %35, %_ZN7QStringD2Ev.exit14, %_ZN7QStringD2Ev.exit
  ret void

38:                                               ; preds = %_ZN7QStringD2Ev.exit18, %_ZN7QStringD2Ev.exit10
  %.pn = phi { ptr, i32 } [ %30, %_ZN7QStringD2Ev.exit18 ], [ %18, %_ZN7QStringD2Ev.exit10 ]
  resume { ptr, i32 } %.pn
}